target datalayout = "e-m:e-p270:32:32-p271:32:32-p272:64:64-i64:64-i128:128-f80:128-n8:16:32:64-S128"
target triple = "x86_64-pc-linux-gnu"

%struct.lv_ll_t = type { i32, ptr, ptr }
%struct._lv_group_t = type { %struct.lv_ll_t, ptr, ptr, ptr, ptr, i8 }

; Function Attrs: nounwind uwtable
define internal ptr @get_indev(ptr noundef %0) #0 {
  %2 = alloca ptr, align 8
  %3 = alloca ptr, align 8
  %4 = alloca ptr, align 8
  %5 = alloca ptr, align 8
  %6 = alloca i32, align 4
  %7 = alloca i32, align 4
  store ptr %0, ptr %3, align 8, !tbaa !3
  call void @llvm.lifetime.start.p0(i64 8, ptr %4) #3
  store ptr null, ptr %4, align 8, !tbaa !3
  call void @llvm.lifetime.start.p0(i64 8, ptr %5) #3
  %8 = call ptr @lv_indev_get_next(ptr noundef null)
  store ptr %8, ptr %5, align 8, !tbaa !3
  br label %9

9:                                                ; preds = %31, %1
  %10 = load ptr, ptr %5, align 8, !tbaa !3
  %11 = icmp ne ptr %10, null
  br i1 %11, label %12, label %32

12:                                               ; preds = %9
  call void @llvm.lifetime.start.p0(i64 4, ptr %6) #3
  %13 = load ptr, ptr %5, align 8, !tbaa !3
  %14 = call i32 @lv_indev_get_type(ptr noundef %13)
  store i32 %14, ptr %6, align 4, !tbaa !27
  %15 = load i32, ptr %6, align 4, !tbaa !27
  %16 = icmp eq i32 %15, 1
  br i1 %16, label %17, label %19

17:                                               ; preds = %12
  %18 = load ptr, ptr %5, align 8, !tbaa !3
  store ptr %18, ptr %2, align 8
  store i32 1, ptr %7, align 4
  br label %29

19:                                               ; preds = %12
  %20 = load ptr, ptr %5, align 8, !tbaa !3
  %21 = call ptr @lv_indev_get_group(ptr noundef %20)
  %22 = load ptr, ptr %3, align 8, !tbaa !3
  %23 = icmp eq ptr %21, %22
  br i1 %23, label %24, label %26

24:                                               ; preds = %19
  %25 = load ptr, ptr %5, align 8, !tbaa !3
  store ptr %25, ptr %4, align 8, !tbaa !3
  br label %26

26:                                               ; preds = %24, %19
  %27 = load ptr, ptr %5, align 8, !tbaa !3
  %28 = call ptr @lv_indev_get_next(ptr noundef %27)
  store ptr %28, ptr %5, align 8, !tbaa !3
  store i32 0, ptr %7, align 4
  br label %29

29:                                               ; preds = %26, %17
  call void @llvm.lifetime.end.p0(i64 4, ptr %6) #3
  %30 = load i32, ptr %7, align 4
  switch i32 %30, label %34 [
    i32 0, label %31
  ]

31:                                               ; preds = %29
  br label %9, !llvm.loop !28

32:                                               ; preds = %9
  %33 = load ptr, ptr %4, align 8, !tbaa !3
  store ptr %33, ptr %2, align 8
  store i32 1, ptr %7, align 4
  br label %34

34:                                               ; preds = %32, %29
  call void @llvm.lifetime.end.p0(i64 8, ptr %5) #3
  call void @llvm.lifetime.end.p0(i64 8, ptr %4) #3
  %35 = load ptr, ptr %2, align 8
  ret ptr %35
}

; Function Attrs: nounwind uwtable
define ptr @lv_group_get_focused(ptr noundef %0) #0 {
  %2 = alloca ptr, align 8
  %3 = alloca ptr, align 8
  store ptr %0, ptr %3, align 8, !tbaa !3
  %4 = load ptr, ptr %3, align 8, !tbaa !3
  %5 = icmp ne ptr %4, null
  br i1 %5, label %7, label %6

6:                                                ; preds = %1
  store ptr null, ptr %2, align 8
  br label %18

7:                                                ; preds = %1
  %8 = load ptr, ptr %3, align 8, !tbaa !3
  %9 = getelementptr inbounds nuw %struct._lv_group_t, ptr %8, i32 0, i32 1
  %10 = load ptr, ptr %9, align 8, !tbaa !7
  %11 = icmp eq ptr %10, null
  br i1 %11, label %12, label %13

12:                                               ; preds = %7
  store ptr null, ptr %2, align 8
  br label %18

13:                                               ; preds = %7
  %14 = load ptr, ptr %3, align 8, !tbaa !3
  %15 = getelementptr inbounds nuw %struct._lv_group_t, ptr %14, i32 0, i32 1
  %16 = load ptr, ptr %15, align 8, !tbaa !7
  %17 = load ptr, ptr %16, align 8, !tbaa !3
  store ptr %17, ptr %2, align 8
  br label %18

18:                                               ; preds = %13, %12, %6
  %19 = load ptr, ptr %2, align 8
  ret ptr %19
}

; Function Attrs: nounwind uwtable
define void @lv_group_set_editing(ptr noundef %0, i1 noundef zeroext %1) #0 {
  %3 = alloca ptr, align 8
  %4 = alloca i8, align 1
  %5 = alloca i8, align 1
  %6 = alloca i32, align 4
  %7 = alloca ptr, align 8
  %8 = alloca i32, align 4
  store ptr %0, ptr %3, align 8, !tbaa !3
  %9 = zext i1 %1 to i8
  store i8 %9, ptr %4, align 1, !tbaa !44
  br label %10

10:                                               ; preds = %2
  %11 = load ptr, ptr %3, align 8, !tbaa !3
  %12 = icmp ne ptr %11, null
  br i1 %12, label %17, label %13

13:                                               ; preds = %10
  br label %14

14:                                               ; preds = %13
  br label %15

15:                                               ; preds = %14
  br label %16

16:                                               ; preds = %15, %16
  br label %16

17:                                               ; preds = %10
  br label %18

18:                                               ; preds = %17
  call void @llvm.lifetime.start.p0(i64 1, ptr %5) #3
  %19 = load i8, ptr %4, align 1, !tbaa !44, !range !45, !noundef !46
  %20 = trunc i8 %19 to i1
  %21 = select i1 %20, i32 1, i32 0
  %22 = trunc i32 %21 to i8
  store i8 %22, ptr %5, align 1, !tbaa !40
  %23 = load i8, ptr %5, align 1, !tbaa !40
  %24 = zext i8 %23 to i32
  %25 = load ptr, ptr %3, align 8, !tbaa !3
  %26 = getelementptr inbounds nuw %struct._lv_group_t, ptr %25, i32 0, i32 5
  %27 = load i8, ptr %26, align 8
  %28 = lshr i8 %27, 1
  %29 = and i8 %28, 1
  %30 = zext i8 %29 to i32
  %31 = icmp eq i32 %24, %30
  br i1 %31, label %32, label %33

32:                                               ; preds = %18
  store i32 1, ptr %6, align 4
  br label %64

33:                                               ; preds = %18
  %34 = load i8, ptr %5, align 1, !tbaa !40
  %35 = load ptr, ptr %3, align 8, !tbaa !3
  %36 = getelementptr inbounds nuw %struct._lv_group_t, ptr %35, i32 0, i32 5
  %37 = load i8, ptr %36, align 8
  %38 = and i8 %34, 1
  %39 = shl i8 %38, 1
  %40 = and i8 %37, -3
  %41 = or i8 %40, %39
  store i8 %41, ptr %36, align 8
  call void @llvm.lifetime.start.p0(i64 8, ptr %7) #3
  %42 = load ptr, ptr %3, align 8, !tbaa !3
  %43 = call ptr @lv_group_get_focused(ptr noundef %42)
  store ptr %43, ptr %7, align 8, !tbaa !3
  %44 = load ptr, ptr %7, align 8, !tbaa !3
  %45 = icmp ne ptr %44, null
  br i1 %45, label %46, label %62

46:                                               ; preds = %33
  call void @llvm.lifetime.start.p0(i64 4, ptr %8) #3
  %47 = load ptr, ptr %3, align 8, !tbaa !3
  %48 = getelementptr inbounds nuw %struct._lv_group_t, ptr %47, i32 0, i32 1
  %49 = load ptr, ptr %48, align 8, !tbaa !7
  %50 = load ptr, ptr %49, align 8, !tbaa !3
  %51 = load ptr, ptr %3, align 8, !tbaa !3
  %52 = call ptr @get_indev(ptr noundef %51)
  %53 = call i32 @lv_obj_send_event(ptr noundef %50, i32 noundef 19, ptr noundef %52)
  store i32 %53, ptr %8, align 4, !tbaa !27
  %54 = load i32, ptr %8, align 4, !tbaa !27
  %55 = icmp ne i32 %54, 1
  br i1 %55, label %56, label %57

56:                                               ; preds = %46
  store i32 1, ptr %6, align 4
  br label %59

57:                                               ; preds = %46
  %58 = load ptr, ptr %7, align 8, !tbaa !3
  call void @lv_obj_invalidate(ptr noundef %58)
  store i32 0, ptr %6, align 4
  br label %59

59:                                               ; preds = %57, %56
  call void @llvm.lifetime.end.p0(i64 4, ptr %8) #3
  %60 = load i32, ptr %6, align 4
  switch i32 %60, label %63 [
    i32 0, label %61
  ]

61:                                               ; preds = %59
  br label %62

62:                                               ; preds = %61, %33
  store i32 0, ptr %6, align 4
  br label %63

63:                                               ; preds = %62, %59
  call void @llvm.lifetime.end.p0(i64 8, ptr %7) #3
  br label %64

64:                                               ; preds = %63, %32
  call void @llvm.lifetime.end.p0(i64 1, ptr %5) #3
  %65 = load i32, ptr %6, align 4
  switch i32 %65, label %67 [
    i32 0, label %66
    i32 1, label %66
  ]

66:                                               ; preds = %64, %64
  ret void

67:                                               ; preds = %64
  unreachable
}