; Function Attrs: nounwind uwtable
define void @lv_group_set_editing(ptr noundef %0, i1 noundef zeroext %1) local_unnamed_addr #0 {
  %.not = icmp eq ptr %0, null
  br i1 %.not, label %.preheader, label %3

.preheader:                                       ; preds = %2, %.preheader
  br label %.preheader

3:                                                ; preds = %2
  %4 = getelementptr inbounds nuw i8, ptr %0, i64 56
  %5 = load i8, ptr %4, align 8
  %6 = and i8 %5, 2
  %7 = icmp eq i8 %6, 0
  %8 = xor i1 %1, %7
  br i1 %8, label %.critedge, label %9

9:                                                ; preds = %3
  %10 = select i1 %1, i8 2, i8 0
  %11 = and i8 %5, -3
  %12 = or disjoint i8 %11, %10
  store i8 %12, ptr %4, align 8
  %13 = getelementptr inbounds nuw i8, ptr %0, i64 24
  %14 = load ptr, ptr %13, align 8, !tbaa !3
  %15 = icmp eq ptr %14, null
  br i1 %15, label %.critedge, label %lv_group_get_focused.exit

lv_group_get_focused.exit:                        ; preds = %9
  %16 = load ptr, ptr %14, align 8, !tbaa !11
  %.not14 = icmp eq ptr %16, null
  br i1 %.not14, label %.critedge, label %17

17:                                               ; preds = %lv_group_get_focused.exit
  %18 = tail call ptr @lv_indev_get_next(ptr noundef null) #10
  %.not20.i = icmp eq ptr %18, null
  br i1 %.not20.i, label %get_indev.exit, label %.lr.ph.i

.lr.ph.i:                                         ; preds = %17, %20
  %.01122.i = phi ptr [ %23, %20 ], [ %18, %17 ]
  %.01321.i = phi ptr [ %spec.select.i, %20 ], [ null, %17 ]
  %19 = tail call i32 @lv_indev_get_type(ptr noundef nonnull %.01122.i) #10
  %.not16.i = icmp eq i32 %19, 1
  br i1 %.not16.i, label %get_indev.exit, label %20

20:                                               ; preds = %.lr.ph.i
  %21 = tail call ptr @lv_indev_get_group(ptr noundef nonnull %.01122.i) #10
  %22 = icmp eq ptr %21, %0
  %spec.select.i = select i1 %22, ptr %.01122.i, ptr %.01321.i
  %23 = tail call ptr @lv_indev_get_next(ptr noundef nonnull %.01122.i) #10
  %.not.i16 = icmp eq ptr %23, null
  br i1 %.not.i16, label %get_indev.exit, label %.lr.ph.i, !llvm.loop !12

get_indev.exit:                                   ; preds = %.lr.ph.i, %20, %17
  %.2.i = phi ptr [ null, %17 ], [ %spec.select.i, %20 ], [ %.01122.i, %.lr.ph.i ]
  %24 = tail call i32 @lv_obj_send_event(ptr noundef nonnull %16, i32 noundef 19, ptr noundef %.2.i) #10
  %.not15 = icmp eq i32 %24, 1
  br i1 %.not15, label %25, label %.critedge

25:                                               ; preds = %get_indev.exit
  tail call void @lv_obj_invalidate(ptr noundef nonnull %16) #10
  br label %.critedge

.critedge:                                        ; preds = %9, %25, %lv_group_get_focused.exit, %get_indev.exit, %3
  ret void
}